; Function Attrs: mustprogress uwtable
define internal fastcc void @_ZN6icu_7717double_conversionL21GenerateCountedDigitsEiPiPNS0_6BignumES3_NS0_6VectorIcEES1_(i32 noundef %0, ptr noundef captures(none) %1, ptr noundef nonnull %2, ptr noundef nonnull %3, ptr captures(none) %4, ptr noundef writeonly captures(none) %5) unnamed_addr #0 {
  %7 = add i32 %0, -1
  %8 = icmp sgt i32 %0, 1
  br i1 %8, label %.lr.ph.preheader, label %._crit_edge37.critedge

.lr.ph.preheader:                                 ; preds = %6
  %wide.trip.count = zext nneg i32 %7 to i64
  br label %.lr.ph

._crit_edge:                                      ; preds = %.lr.ph
  %9 = tail call noundef zeroext i16 @_ZN6icu_7717double_conversion6Bignum21DivideModuloIntBignumERKS1_(ptr noundef nonnull align 4 dereferenceable(516) %2, ptr noundef nonnull align 4 dereferenceable(516) %3)
  %10 = tail call noundef i32 @_ZN6icu_7717double_conversion6Bignum11PlusCompareERKS1_S3_S3_(ptr noundef nonnull align 4 dereferenceable(516) %2, ptr noundef nonnull align 4 dereferenceable(516) %2, ptr noundef nonnull align 4 dereferenceable(516) %3)
  %11 = icmp sgt i32 %10, -1
  %12 = zext i1 %11 to i16
  %spec.select = add i16 %9, %12
  %13 = trunc i16 %spec.select to i8
  %14 = add i8 %13, 48
  %15 = sext i32 %7 to i64
  %16 = getelementptr inbounds i8, ptr %4, i64 %15
  store i8 %14, ptr %16, align 1, !tbaa !5
  %.phi.trans.insert = zext nneg i32 %7 to i64
  %.phi.trans.insert40 = getelementptr inbounds nuw i8, ptr %4, i64 %.phi.trans.insert
  %.pre = load i8, ptr %.phi.trans.insert40, align 1, !tbaa !5
  br label %.lr.ph36

.lr.ph:                                           ; preds = %.lr.ph.preheader, %.lr.ph
  %indvars.iv = phi i64 [ 0, %.lr.ph.preheader ], [ %indvars.iv.next, %.lr.ph ]
  %17 = tail call noundef zeroext i16 @_ZN6icu_7717double_conversion6Bignum21DivideModuloIntBignumERKS1_(ptr noundef nonnull align 4 dereferenceable(516) %2, ptr noundef nonnull align 4 dereferenceable(516) %3)
  %18 = trunc i16 %17 to i8
  %19 = add i8 %18, 48
  %20 = getelementptr inbounds nuw i8, ptr %4, i64 %indvars.iv
  store i8 %19, ptr %20, align 1, !tbaa !5
  tail call void @_ZN6icu_7717double_conversion6Bignum16MultiplyByUInt32Ej(ptr noundef nonnull align 4 dereferenceable(516) %2, i32 noundef 10)
  %indvars.iv.next = add nuw nsw i64 %indvars.iv, 1
  %exitcond.not = icmp eq i64 %indvars.iv.next, %wide.trip.count
  br i1 %exitcond.not, label %._crit_edge, label %.lr.ph, !llvm.loop !14

.lr.ph36:                                         ; preds = %._crit_edge, %22
  %21 = phi i8 [ %29, %22 ], [ %.pre, %._crit_edge ]
  %.034 = phi i32 [ %25, %22 ], [ %7, %._crit_edge ]
  %.not = icmp eq i8 %21, 58
  br i1 %.not, label %22, label %._crit_edge37

22:                                               ; preds = %.lr.ph36
  %23 = zext nneg i32 %.034 to i64
  %24 = getelementptr inbounds nuw i8, ptr %4, i64 %23
  store i8 48, ptr %24, align 1, !tbaa !5
  %25 = add nsw i32 %.034, -1
  %26 = zext nneg i32 %25 to i64
  %27 = getelementptr inbounds nuw i8, ptr %4, i64 %26
  %28 = load i8, ptr %27, align 1, !tbaa !5
  %29 = add i8 %28, 1
  store i8 %29, ptr %27, align 1, !tbaa !5
  %30 = icmp sgt i32 %.034, 1
  br i1 %30, label %.lr.ph36, label %._crit_edge37, !llvm.loop !15

._crit_edge37.critedge:                           ; preds = %6
  %31 = tail call noundef zeroext i16 @_ZN6icu_7717double_conversion6Bignum21DivideModuloIntBignumERKS1_(ptr noundef nonnull align 4 dereferenceable(516) %2, ptr noundef nonnull align 4 dereferenceable(516) %3)
  %32 = tail call noundef i32 @_ZN6icu_7717double_conversion6Bignum11PlusCompareERKS1_S3_S3_(ptr noundef nonnull align 4 dereferenceable(516) %2, ptr noundef nonnull align 4 dereferenceable(516) %2, ptr noundef nonnull align 4 dereferenceable(516) %3)
  %33 = icmp sgt i32 %32, -1
  %34 = zext i1 %33 to i16
  %spec.select.c = add i16 %31, %34
  %35 = trunc i16 %spec.select.c to i8
  %36 = add i8 %35, 48
  %37 = sext i32 %7 to i64
  %38 = getelementptr inbounds i8, ptr %4, i64 %37
  store i8 %36, ptr %38, align 1, !tbaa !5
  br label %._crit_edge37

._crit_edge37:                                    ; preds = %22, %.lr.ph36, %._crit_edge37.critedge
  %39 = load i8, ptr %4, align 1, !tbaa !5
  %40 = icmp eq i8 %39, 58
  br i1 %40, label %41, label %44

41:                                               ; preds = %._crit_edge37
  store i8 49, ptr %4, align 1, !tbaa !5
  %42 = load i32, ptr %1, align 4, !tbaa !8
  %43 = add nsw i32 %42, 1
  store i32 %43, ptr %1, align 4, !tbaa !8
  br label %44

44:                                               ; preds = %41, %._crit_edge37
  store i32 %0, ptr %5, align 4, !tbaa !8
  ret void
}